; Function Attrs: mustprogress uwtable
define hidden noundef range(i64 -9223372036854775808, 2147483648) i64 @_ZN5boost9iostreams6detail20file_descriptor_impl5writeEPKcl(ptr nocapture noundef nonnull readonly align 4 dereferenceable(8) %0, ptr nocapture noundef readonly %1, i64 noundef returned %2) local_unnamed_addr #3 align 2 personality ptr @__gxx_personality_v0 {
  %4 = alloca %"class.std::ios_base::failure", align 8
  %5 = load i32, ptr %0, align 4, !tbaa !3
  %6 = tail call i64 @write(i32 noundef %5, ptr noundef %1, i64 noundef %2)
  %sext = shl i64 %6, 32
  %7 = ashr exact i64 %sext, 32
  %8 = icmp slt i64 %7, %2
  br i1 %8, label %9, label %13

9:                                                ; preds = %3
  call void @llvm.lifetime.start.p0(i64 32, ptr nonnull %4) #28
  call void @_ZN5boost9iostreams6detail14system_failureB5cxx11EPKc(ptr dead_on_unwind nonnull writable sret(%"class.std::ios_base::failure") align 8 %4, ptr noundef nonnull @.str.4)
  invoke void @_ZN5boost15throw_exceptionINSt8ios_base7failureB5cxx11EEEvRKT_(ptr noundef nonnull align 8 dereferenceable(32) %4) #29
          to label %10 unwind label %11

10:                                               ; preds = %9
  unreachable

11:                                               ; preds = %9
  %12 = landingpad { ptr, i32 }
          cleanup
  call void @_ZNSt8ios_base7failureB5cxx11D1Ev(ptr noundef nonnull align 8 dereferenceable(32) %4) #28
  call void @llvm.lifetime.end.p0(i64 32, ptr nonnull %4) #28
  resume { ptr, i32 } %12

13:                                               ; preds = %3
  ret i64 %2
}